; Function Attrs: nounwind uwtable
define nonnull ptr @l_Lean_RBNode_isBlack___rarg___boxed(ptr noundef %0) #1 {
  %2 = ptrtoint ptr %0 to i64
  %3 = and i64 %2, 1
  %.not.i.i = icmp eq i64 %3, 0
  br i1 %.not.i.i, label %7, label %4

4:                                                ; preds = %1
  %5 = lshr i64 %2, 1
  %6 = trunc i64 %5 to i32
  br label %lean_obj_tag.exit.i

7:                                                ; preds = %1
  %8 = getelementptr i8, ptr %0, i64 4
  %.val.i.i = load i32, ptr %8, align 4
  %9 = lshr i32 %.val.i.i, 24
  br label %lean_obj_tag.exit.i

lean_obj_tag.exit.i:                              ; preds = %7, %4
  %.0.i.i = phi i32 [ %6, %4 ], [ %9, %7 ]
  %10 = icmp eq i32 %.0.i.i, 0
  br i1 %10, label %l_Lean_RBNode_isBlack___rarg.exit, label %11

11:                                               ; preds = %lean_obj_tag.exit.i
  %12 = getelementptr i8, ptr %0, i64 40
  %.val.i = load i8, ptr %12, align 1, !tbaa !18
  %.not3 = icmp eq i8 %.val.i, 0
  %13 = select i1 %.not3, i64 1, i64 3
  br label %l_Lean_RBNode_isBlack___rarg.exit

l_Lean_RBNode_isBlack___rarg.exit:                ; preds = %lean_obj_tag.exit.i, %11
  %.0.i = phi i64 [ %13, %11 ], [ 1, %lean_obj_tag.exit.i ]
  br i1 %.not.i.i, label %14, label %lean_dec.exit

14:                                               ; preds = %l_Lean_RBNode_isBlack___rarg.exit
  %15 = load i32, ptr %0, align 4, !tbaa !4
  %16 = icmp sgt i32 %15, 1
  br i1 %16, label %17, label %19, !prof !9

17:                                               ; preds = %14
  %18 = add nsw i32 %15, -1
  store i32 %18, ptr %0, align 4, !tbaa !4
  br label %lean_dec.exit

19:                                               ; preds = %14
  %.not.i = icmp eq i32 %15, 0
  br i1 %.not.i, label %lean_dec.exit, label %20

20:                                               ; preds = %19
  tail call void @lean_dec_ref_cold(ptr noundef nonnull %0) #9
  br label %lean_dec.exit

lean_dec.exit:                                    ; preds = %20, %19, %17, %l_Lean_RBNode_isBlack___rarg.exit
  %21 = inttoptr i64 %.0.i to ptr
  ret ptr %21
}